target datalayout = "e-m:e-p270:32:32-p271:32:32-p272:64:64-i64:64-i128:128-f80:128-n8:16:32:64-S128"
target triple = "x86_64-pc-linux-gnu"

%"class.rocksdb::Slice" = type { ptr, i64 }
%"class.rocksdb::LookupKey" = type { ptr, ptr, ptr, [200 x i8] }

; Function Attrs: inlinehint mustprogress nounwind uwtable
define linkonce_odr void @_ZN7rocksdb13EncodeFixed64EPcm(ptr noundef %0, i64 noundef %1) #1 comdat {
  %3 = alloca ptr, align 8
  %4 = alloca i64, align 8
  store ptr %0, ptr %3, align 8, !tbaa !24
  store i64 %1, ptr %4, align 8, !tbaa !4
  %5 = load ptr, ptr %3, align 8, !tbaa !24
  call void @llvm.memcpy.p0.p0.i64(ptr align 1 %5, ptr align 8 %4, i64 8, i1 false)
  ret void
}

; Function Attrs: inlinehint mustprogress nounwind uwtable
define linkonce_odr noundef i64 @_ZN7rocksdb19PackSequenceAndTypeEmNS_9ValueTypeE(i64 noundef %0, i8 noundef zeroext %1) #1 comdat {
  %3 = alloca i64, align 8
  %4 = alloca i8, align 1
  store i64 %0, ptr %3, align 8, !tbaa !4
  store i8 %1, ptr %4, align 1, !tbaa !8
  %5 = load i64, ptr %3, align 8, !tbaa !4
  %6 = shl i64 %5, 8
  %7 = load i8, ptr %4, align 1, !tbaa !8
  %8 = zext i8 %7 to i64
  %9 = or i64 %6, %8
  ret i64 %9
}

; Function Attrs: mustprogress nounwind uwtable
define linkonce_odr noundef ptr @_ZNK7rocksdb5Slice4dataEv(ptr noundef nonnull align 8 dereferenceable(16) %0) #5 comdat align 2 {
  %2 = alloca ptr, align 8
  store ptr %0, ptr %2, align 8, !tbaa !13
  %3 = load ptr, ptr %2, align 8
  %4 = getelementptr inbounds nuw %"class.rocksdb::Slice", ptr %3, i32 0, i32 0
  %5 = load ptr, ptr %4, align 8, !tbaa !26
  ret ptr %5
}

; Function Attrs: mustprogress nounwind uwtable
define linkonce_odr noundef i64 @_ZNK7rocksdb5Slice4sizeEv(ptr noundef nonnull align 8 dereferenceable(16) %0) #5 comdat align 2 {
  %2 = alloca ptr, align 8
  store ptr %0, ptr %2, align 8, !tbaa !13
  %3 = load ptr, ptr %2, align 8
  %4 = getelementptr inbounds nuw %"class.rocksdb::Slice", ptr %3, i32 0, i32 1
  %5 = load i64, ptr %4, align 8, !tbaa !28
  ret i64 %5
}

; Function Attrs: mustprogress uwtable
define void @_ZN7rocksdb9LookupKeyC2ERKNS_5SliceEmPS2_(ptr noundef nonnull align 8 dereferenceable(224) %0, ptr noundef nonnull align 8 dereferenceable(16) %1, i64 noundef %2, ptr noundef %3) unnamed_addr #3 align 2 {
  %5 = alloca ptr, align 8
  %6 = alloca ptr, align 8
  %7 = alloca i64, align 8
  %8 = alloca ptr, align 8
  %9 = alloca i64, align 8
  %10 = alloca i64, align 8
  %11 = alloca i64, align 8
  %12 = alloca ptr, align 8
  store ptr %0, ptr %5, align 8, !tbaa !63
  store ptr %1, ptr %6, align 8, !tbaa !13
  store i64 %2, ptr %7, align 8, !tbaa !4
  store ptr %3, ptr %8, align 8, !tbaa !13
  %13 = load ptr, ptr %5, align 8
  call void @llvm.lifetime.start.p0(i64 8, ptr %9) #6
  %14 = load ptr, ptr %6, align 8, !tbaa !13
  %15 = call noundef i64 @_ZNK7rocksdb5Slice4sizeEv(ptr noundef nonnull align 8 dereferenceable(16) %14)
  store i64 %15, ptr %9, align 8, !tbaa !4
  call void @llvm.lifetime.start.p0(i64 8, ptr %10) #6
  %16 = load ptr, ptr %8, align 8, !tbaa !13
  %17 = icmp eq ptr null, %16
  br i1 %17, label %18, label %19

18:                                               ; preds = %4
  br label %22

19:                                               ; preds = %4
  %20 = load ptr, ptr %8, align 8, !tbaa !13
  %21 = call noundef i64 @_ZNK7rocksdb5Slice4sizeEv(ptr noundef nonnull align 8 dereferenceable(16) %20)
  br label %22

22:                                               ; preds = %19, %18
  %23 = phi i64 [ 0, %18 ], [ %21, %19 ]
  store i64 %23, ptr %10, align 8, !tbaa !4
  call void @llvm.lifetime.start.p0(i64 8, ptr %11) #6
  %24 = load i64, ptr %9, align 8, !tbaa !4
  %25 = load i64, ptr %10, align 8, !tbaa !4
  %26 = add i64 %24, %25
  %27 = add i64 %26, 13
  store i64 %27, ptr %11, align 8, !tbaa !4
  call void @llvm.lifetime.start.p0(i64 8, ptr %12) #6
  %28 = load i64, ptr %11, align 8, !tbaa !4
  %29 = icmp ule i64 %28, 200
  br i1 %29, label %30, label %33

30:                                               ; preds = %22
  %31 = getelementptr inbounds nuw %"class.rocksdb::LookupKey", ptr %13, i32 0, i32 3
  %32 = getelementptr inbounds [200 x i8], ptr %31, i64 0, i64 0
  store ptr %32, ptr %12, align 8, !tbaa !24
  br label %36

33:                                               ; preds = %22
  %34 = load i64, ptr %11, align 8, !tbaa !4
  %35 = call noalias noundef nonnull ptr @_Znam(i64 noundef %34) #21
  store ptr %35, ptr %12, align 8, !tbaa !24
  br label %36

36:                                               ; preds = %33, %30
  %37 = load ptr, ptr %12, align 8, !tbaa !24
  %38 = getelementptr inbounds nuw %"class.rocksdb::LookupKey", ptr %13, i32 0, i32 0
  store ptr %37, ptr %38, align 8, !tbaa !65
  %39 = load ptr, ptr %12, align 8, !tbaa !24
  %40 = load i64, ptr %9, align 8, !tbaa !4
  %41 = load i64, ptr %10, align 8, !tbaa !4
  %42 = add i64 %40, %41
  %43 = add i64 %42, 8
  %44 = trunc i64 %43 to i32
  %45 = call noundef ptr @_ZN7rocksdb14EncodeVarint32EPcj(ptr noundef %39, i32 noundef %44)
  store ptr %45, ptr %12, align 8, !tbaa !24
  %46 = load ptr, ptr %12, align 8, !tbaa !24
  %47 = getelementptr inbounds nuw %"class.rocksdb::LookupKey", ptr %13, i32 0, i32 1
  store ptr %46, ptr %47, align 8, !tbaa !67
  %48 = load ptr, ptr %12, align 8, !tbaa !24
  %49 = load ptr, ptr %6, align 8, !tbaa !13
  %50 = call noundef ptr @_ZNK7rocksdb5Slice4dataEv(ptr noundef nonnull align 8 dereferenceable(16) %49)
  %51 = load i64, ptr %9, align 8, !tbaa !4
  call void @llvm.memcpy.p0.p0.i64(ptr align 1 %48, ptr align 1 %50, i64 %51, i1 false)
  %52 = load i64, ptr %9, align 8, !tbaa !4
  %53 = load ptr, ptr %12, align 8, !tbaa !24
  %54 = getelementptr inbounds nuw i8, ptr %53, i64 %52
  store ptr %54, ptr %12, align 8, !tbaa !24
  %55 = load ptr, ptr %8, align 8, !tbaa !13
  %56 = icmp ne ptr null, %55
  br i1 %56, label %57, label %65

57:                                               ; preds = %36
  %58 = load ptr, ptr %12, align 8, !tbaa !24
  %59 = load ptr, ptr %8, align 8, !tbaa !13
  %60 = call noundef ptr @_ZNK7rocksdb5Slice4dataEv(ptr noundef nonnull align 8 dereferenceable(16) %59)
  %61 = load i64, ptr %10, align 8, !tbaa !4
  call void @llvm.memcpy.p0.p0.i64(ptr align 1 %58, ptr align 1 %60, i64 %61, i1 false)
  %62 = load i64, ptr %10, align 8, !tbaa !4
  %63 = load ptr, ptr %12, align 8, !tbaa !24
  %64 = getelementptr inbounds nuw i8, ptr %63, i64 %62
  store ptr %64, ptr %12, align 8, !tbaa !24
  br label %65

65:                                               ; preds = %57, %36
  %66 = load ptr, ptr %12, align 8, !tbaa !24
  %67 = load i64, ptr %7, align 8, !tbaa !4
  %68 = call noundef i64 @_ZN7rocksdb19PackSequenceAndTypeEmNS_9ValueTypeE(i64 noundef %67, i8 noundef zeroext 24)
  call void @_ZN7rocksdb13EncodeFixed64EPcm(ptr noundef %66, i64 noundef %68)
  %69 = load ptr, ptr %12, align 8, !tbaa !24
  %70 = getelementptr inbounds i8, ptr %69, i64 8
  store ptr %70, ptr %12, align 8, !tbaa !24
  %71 = load ptr, ptr %12, align 8, !tbaa !24
  %72 = getelementptr inbounds nuw %"class.rocksdb::LookupKey", ptr %13, i32 0, i32 2
  store ptr %71, ptr %72, align 8, !tbaa !68
  call void @llvm.lifetime.end.p0(i64 8, ptr %12) #6
  call void @llvm.lifetime.end.p0(i64 8, ptr %11) #6
  call void @llvm.lifetime.end.p0(i64 8, ptr %10) #6
  call void @llvm.lifetime.end.p0(i64 8, ptr %9) #6
  ret void
}