; Function Attrs: mustprogress uwtable
define void @_ZN7rocksdb9LookupKeyC2ERKNS_5SliceEmPS2_(ptr noundef nonnull align 8 dereferenceable(224) %0, ptr noundef nonnull readonly align 8 captures(none) dereferenceable(16) %1, i64 noundef %2, ptr noundef readonly %3) unnamed_addr #4 align 2 {
  %5 = getelementptr inbounds nuw i8, ptr %1, i64 8
  %6 = load i64, ptr %5, align 8, !tbaa !4
  %7 = icmp eq ptr %3, null
  br i1 %7, label %11, label %8

8:                                                ; preds = %4
  %9 = getelementptr inbounds nuw i8, ptr %3, i64 8
  %10 = load i64, ptr %9, align 8, !tbaa !4
  br label %11

11:                                               ; preds = %4, %8
  %12 = phi i64 [ %10, %8 ], [ 0, %4 ]
  %13 = add i64 %12, %6
  %14 = add i64 %13, 13
  %15 = icmp ult i64 %14, 201
  br i1 %15, label %16, label %18

16:                                               ; preds = %11
  %17 = getelementptr inbounds nuw i8, ptr %0, i64 24
  br label %20

18:                                               ; preds = %11
  %19 = tail call noalias noundef nonnull ptr @_Znam(i64 noundef %14) #23
  br label %20

20:                                               ; preds = %18, %16
  %.0 = phi ptr [ %17, %16 ], [ %19, %18 ]
  store ptr %.0, ptr %0, align 8, !tbaa !85
  %21 = trunc i64 %13 to i32
  %22 = add i32 %21, 8
  %23 = tail call noundef ptr @_ZN7rocksdb14EncodeVarint32EPcj(ptr noundef nonnull %.0, i32 noundef %22)
  %24 = getelementptr inbounds nuw i8, ptr %0, i64 8
  store ptr %23, ptr %24, align 8, !tbaa !87
  %25 = load ptr, ptr %1, align 8, !tbaa !14
  tail call void @llvm.memcpy.p0.p0.i64(ptr align 1 %23, ptr align 1 %25, i64 %6, i1 false)
  %26 = getelementptr inbounds nuw i8, ptr %23, i64 %6
  br i1 %7, label %30, label %27

27:                                               ; preds = %20
  %28 = load ptr, ptr %3, align 8, !tbaa !14
  tail call void @llvm.memcpy.p0.p0.i64(ptr align 1 %26, ptr align 1 %28, i64 %12, i1 false)
  %29 = getelementptr inbounds nuw i8, ptr %26, i64 %12
  br label %30

30:                                               ; preds = %27, %20
  %.1 = phi ptr [ %29, %27 ], [ %26, %20 ]
  %31 = shl i64 %2, 8
  %32 = or disjoint i64 %31, 24
  store i64 %32, ptr %.1, align 1
  %33 = getelementptr inbounds nuw i8, ptr %.1, i64 8
  %34 = getelementptr inbounds nuw i8, ptr %0, i64 16
  store ptr %33, ptr %34, align 8, !tbaa !88
  ret void
}